target datalayout = "e-m:e-p270:32:32-p271:32:32-p272:64:64-i64:64-i128:128-f80:128-n8:16:32:64-S128"
target triple = "x86_64-pc-linux-gnu"

%struct.SCSUData = type { [8 x i32], [8 x i32], i8, i8, i8, i8, i8, [3 x i8], i8, i8, i8, i8, [8 x i8] }

; Function Attrs: mustprogress nounwind uwtable
define internal void @_ZL16useDynamicWindowP8SCSUDataa(ptr noundef %0, i8 noundef signext %1) #1 {
  %3 = alloca ptr, align 8
  %4 = alloca i8, align 1
  %5 = alloca i32, align 4
  %6 = alloca i32, align 4
  store ptr %0, ptr %3, align 8, !tbaa !31
  store i8 %1, ptr %4, align 1, !tbaa !20
  call void @llvm.lifetime.start.p0(i64 4, ptr %5) #7
  call void @llvm.lifetime.start.p0(i64 4, ptr %6) #7
  %7 = load ptr, ptr %3, align 8, !tbaa !31
  %8 = getelementptr inbounds nuw %struct.SCSUData, ptr %7, i32 0, i32 11
  %9 = load i8, ptr %8, align 1, !tbaa !41
  %10 = sext i8 %9 to i32
  store i32 %10, ptr %5, align 4, !tbaa !52
  br label %11

11:                                               ; preds = %17, %2
  %12 = load i32, ptr %5, align 4, !tbaa !52
  %13 = add nsw i32 %12, -1
  store i32 %13, ptr %5, align 4, !tbaa !52
  %14 = icmp slt i32 %13, 0
  br i1 %14, label %15, label %16

15:                                               ; preds = %11
  store i32 7, ptr %5, align 4, !tbaa !52
  br label %16

16:                                               ; preds = %15, %11
  br label %17

17:                                               ; preds = %16
  %18 = load ptr, ptr %3, align 8, !tbaa !31
  %19 = getelementptr inbounds nuw %struct.SCSUData, ptr %18, i32 0, i32 12
  %20 = load i32, ptr %5, align 4, !tbaa !52
  %21 = sext i32 %20 to i64
  %22 = getelementptr inbounds [8 x i8], ptr %19, i64 0, i64 %21
  %23 = load i8, ptr %22, align 1, !tbaa !20
  %24 = sext i8 %23 to i32
  %25 = load i8, ptr %4, align 1, !tbaa !20
  %26 = sext i8 %25 to i32
  %27 = icmp ne i32 %24, %26
  br i1 %27, label %11, label %28, !llvm.loop !83

28:                                               ; preds = %17
  %29 = load i32, ptr %5, align 4, !tbaa !52
  %30 = add nsw i32 %29, 1
  store i32 %30, ptr %6, align 4, !tbaa !52
  %31 = load i32, ptr %6, align 4, !tbaa !52
  %32 = icmp eq i32 %31, 8
  br i1 %32, label %33, label %34

33:                                               ; preds = %28
  store i32 0, ptr %6, align 4, !tbaa !52
  br label %34

34:                                               ; preds = %33, %28
  br label %35

35:                                               ; preds = %59, %34
  %36 = load i32, ptr %6, align 4, !tbaa !52
  %37 = load ptr, ptr %3, align 8, !tbaa !31
  %38 = getelementptr inbounds nuw %struct.SCSUData, ptr %37, i32 0, i32 11
  %39 = load i8, ptr %38, align 1, !tbaa !41
  %40 = sext i8 %39 to i32
  %41 = icmp ne i32 %36, %40
  br i1 %41, label %42, label %60

42:                                               ; preds = %35
  %43 = load ptr, ptr %3, align 8, !tbaa !31
  %44 = getelementptr inbounds nuw %struct.SCSUData, ptr %43, i32 0, i32 12
  %45 = load i32, ptr %6, align 4, !tbaa !52
  %46 = sext i32 %45 to i64
  %47 = getelementptr inbounds [8 x i8], ptr %44, i64 0, i64 %46
  %48 = load i8, ptr %47, align 1, !tbaa !20
  %49 = load ptr, ptr %3, align 8, !tbaa !31
  %50 = getelementptr inbounds nuw %struct.SCSUData, ptr %49, i32 0, i32 12
  %51 = load i32, ptr %5, align 4, !tbaa !52
  %52 = sext i32 %51 to i64
  %53 = getelementptr inbounds [8 x i8], ptr %50, i64 0, i64 %52
  store i8 %48, ptr %53, align 1, !tbaa !20
  %54 = load i32, ptr %6, align 4, !tbaa !52
  store i32 %54, ptr %5, align 4, !tbaa !52
  %55 = load i32, ptr %6, align 4, !tbaa !52
  %56 = add nsw i32 %55, 1
  store i32 %56, ptr %6, align 4, !tbaa !52
  %57 = icmp eq i32 %56, 8
  br i1 %57, label %58, label %59

58:                                               ; preds = %42
  store i32 0, ptr %6, align 4, !tbaa !52
  br label %59

59:                                               ; preds = %58, %42
  br label %35, !llvm.loop !84

60:                                               ; preds = %35
  %61 = load i8, ptr %4, align 1, !tbaa !20
  %62 = load ptr, ptr %3, align 8, !tbaa !31
  %63 = getelementptr inbounds nuw %struct.SCSUData, ptr %62, i32 0, i32 12
  %64 = load i32, ptr %5, align 4, !tbaa !52
  %65 = sext i32 %64 to i64
  %66 = getelementptr inbounds [8 x i8], ptr %63, i64 0, i64 %65
  store i8 %61, ptr %66, align 1, !tbaa !20
  call void @llvm.lifetime.end.p0(i64 4, ptr %6) #7
  call void @llvm.lifetime.end.p0(i64 4, ptr %5) #7
  ret void
}