; Function Attrs: mustprogress nofree norecurse nosync nounwind memory(argmem: readwrite) uwtable
define internal fastcc void @_ZL16useDynamicWindowP8SCSUDataa(ptr noundef captures(none) %0, i8 noundef signext %1) unnamed_addr #8 {
  %3 = getelementptr inbounds nuw i8, ptr %0, i64 75
  %4 = load i8, ptr %3, align 1, !tbaa !23
  %5 = sext i8 %4 to i32
  %6 = getelementptr inbounds nuw i8, ptr %0, i64 76
  br label %7

7:                                                ; preds = %7, %2
  %.019 = phi i32 [ %5, %2 ], [ %spec.store.select, %7 ]
  %8 = add nsw i32 %.019, -1
  %9 = icmp slt i32 %.019, 1
  %spec.store.select = select i1 %9, i32 7, i32 %8
  %10 = sext i32 %spec.store.select to i64
  %11 = getelementptr inbounds [8 x i8], ptr %6, i64 0, i64 %10
  %12 = load i8, ptr %11, align 1, !tbaa !16
  %.not = icmp eq i8 %12, %1
  br i1 %.not, label %13, label %7, !llvm.loop !63

13:                                               ; preds = %7
  %14 = add nsw i32 %spec.store.select, 1
  %15 = icmp eq i32 %14, 8
  %spec.store.select1 = select i1 %15, i32 0, i32 %14
  %.not2021 = icmp eq i32 %spec.store.select1, %5
  br i1 %.not2021, label %._crit_edge, label %.lr.ph

.lr.ph:                                           ; preds = %13, %.lr.ph
  %.023 = phi i32 [ %spec.store.select2, %.lr.ph ], [ %spec.store.select1, %13 ]
  %.122 = phi i32 [ %.023, %.lr.ph ], [ %spec.store.select, %13 ]
  %16 = sext i32 %.023 to i64
  %17 = getelementptr inbounds [8 x i8], ptr %6, i64 0, i64 %16
  %18 = load i8, ptr %17, align 1, !tbaa !16
  %19 = sext i32 %.122 to i64
  %20 = getelementptr inbounds [8 x i8], ptr %6, i64 0, i64 %19
  store i8 %18, ptr %20, align 1, !tbaa !16
  %21 = add nsw i32 %.023, 1
  %22 = icmp eq i32 %21, 8
  %spec.store.select2 = select i1 %22, i32 0, i32 %21
  %23 = load i8, ptr %3, align 1, !tbaa !23
  %24 = sext i8 %23 to i32
  %.not20 = icmp eq i32 %spec.store.select2, %24
  br i1 %.not20, label %._crit_edge, label %.lr.ph, !llvm.loop !64

._crit_edge:                                      ; preds = %.lr.ph, %13
  %.pre-phi = phi i64 [ %10, %13 ], [ %16, %.lr.ph ]
  %25 = getelementptr inbounds [8 x i8], ptr %6, i64 0, i64 %.pre-phi
  store i8 %1, ptr %25, align 1, !tbaa !16
  ret void
}